target datalayout = "e-m:e-p270:32:32-p271:32:32-p272:64:64-i64:64-i128:128-f80:128-n8:16:32:64-S128"
target triple = "x86_64-pc-linux-gnu"

; Function Attrs: nounwind uwtable
define hidden i32 @aom_get_num_layers_from_operating_point_idc(i32 noundef %0, ptr noundef %1, ptr noundef %2) #0 {
  %4 = alloca i32, align 4
  %5 = alloca i32, align 4
  %6 = alloca ptr, align 8
  %7 = alloca ptr, align 8
  %8 = alloca i32, align 4
  %9 = alloca i32, align 4
  store i32 %0, ptr %5, align 4
  store ptr %1, ptr %6, align 8
  store ptr %2, ptr %7, align 8
  %10 = load ptr, ptr %6, align 8
  %11 = icmp ne ptr %10, null
  br i1 %11, label %12, label %15

12:                                               ; preds = %3
  %13 = load ptr, ptr %7, align 8
  %14 = icmp ne ptr %13, null
  br i1 %14, label %16, label %15

15:                                               ; preds = %12, %3
  store i32 8, ptr %4, align 4
  br label %57

16:                                               ; preds = %12
  %17 = load i32, ptr %5, align 4
  %18 = icmp eq i32 %17, 0
  br i1 %18, label %19, label %22

19:                                               ; preds = %16
  %20 = load ptr, ptr %7, align 8
  store i32 1, ptr %20, align 4
  %21 = load ptr, ptr %6, align 8
  store i32 1, ptr %21, align 4
  br label %56

22:                                               ; preds = %16
  %23 = load ptr, ptr %6, align 8
  store i32 0, ptr %23, align 4
  %24 = load ptr, ptr %7, align 8
  store i32 0, ptr %24, align 4
  store i32 0, ptr %8, align 4
  br label %25

25:                                               ; preds = %37, %22
  %26 = load i32, ptr %8, align 4
  %27 = icmp slt i32 %26, 4
  br i1 %27, label %28, label %40

28:                                               ; preds = %25
  %29 = load i32, ptr %5, align 4
  %30 = load i32, ptr %8, align 4
  %31 = add nsw i32 %30, 8
  %32 = ashr i32 %29, %31
  %33 = and i32 %32, 1
  %34 = load ptr, ptr %6, align 8
  %35 = load i32, ptr %34, align 4
  %36 = add i32 %35, %33
  store i32 %36, ptr %34, align 4
  br label %37

37:                                               ; preds = %28
  %38 = load i32, ptr %8, align 4
  %39 = add nsw i32 %38, 1
  store i32 %39, ptr %8, align 4
  br label %25, !llvm.loop !4

40:                                               ; preds = %25
  store i32 0, ptr %9, align 4
  br label %41

41:                                               ; preds = %52, %40
  %42 = load i32, ptr %9, align 4
  %43 = icmp slt i32 %42, 8
  br i1 %43, label %44, label %55

44:                                               ; preds = %41
  %45 = load i32, ptr %5, align 4
  %46 = load i32, ptr %9, align 4
  %47 = ashr i32 %45, %46
  %48 = and i32 %47, 1
  %49 = load ptr, ptr %7, align 8
  %50 = load i32, ptr %49, align 4
  %51 = add i32 %50, %48
  store i32 %51, ptr %49, align 4
  br label %52

52:                                               ; preds = %44
  %53 = load i32, ptr %9, align 4
  %54 = add nsw i32 %53, 1
  store i32 %54, ptr %9, align 4
  br label %41, !llvm.loop !6

55:                                               ; preds = %41
  br label %56

56:                                               ; preds = %55, %19
  store i32 0, ptr %4, align 4
  br label %57

57:                                               ; preds = %56, %15
  %58 = load i32, ptr %4, align 4
  ret i32 %58
}