; Function Attrs: nofree norecurse nosync nounwind memory(argmem: readwrite) uwtable
define hidden range(i32 0, 9) i32 @aom_get_num_layers_from_operating_point_idc(i32 noundef %0, ptr noundef %1, ptr noundef %2) local_unnamed_addr #0 {
  %4 = icmp ne ptr %1, null
  %5 = icmp ne ptr %2, null
  %or.cond = and i1 %4, %5
  br i1 %or.cond, label %6, label %23

6:                                                ; preds = %3
  %7 = icmp eq i32 %0, 0
  br i1 %7, label %8, label %9

8:                                                ; preds = %6
  store i32 1, ptr %2, align 4
  store i32 1, ptr %1, align 4
  br label %23

9:                                                ; preds = %6
  store i32 0, ptr %1, align 4
  store i32 0, ptr %2, align 4
  %.promoted = load i32, ptr %1, align 4
  br label %10

.preheader:                                       ; preds = %10
  store i32 %15, ptr %1, align 4
  %.promoted24 = load i32, ptr %2, align 4
  br label %17

10:                                               ; preds = %9, %10
  %.01823 = phi i32 [ 0, %9 ], [ %16, %10 ]
  %11 = phi i32 [ %.promoted, %9 ], [ %15, %10 ]
  %12 = or disjoint i32 %.01823, 8
  %13 = lshr i32 %0, %12
  %14 = and i32 %13, 1
  %15 = add i32 %11, %14
  %16 = add nuw nsw i32 %.01823, 1
  %exitcond.not = icmp eq i32 %16, 4
  br i1 %exitcond.not, label %.preheader, label %10, !llvm.loop !4

17:                                               ; preds = %.preheader, %17
  %.026 = phi i32 [ 0, %.preheader ], [ %22, %17 ]
  %18 = phi i32 [ %.promoted24, %.preheader ], [ %21, %17 ]
  %19 = lshr i32 %0, %.026
  %20 = and i32 %19, 1
  %21 = add i32 %18, %20
  %22 = add nuw nsw i32 %.026, 1
  %exitcond28.not = icmp eq i32 %22, 8
  br i1 %exitcond28.not, label %.loopexit, label %17, !llvm.loop !6

.loopexit:                                        ; preds = %17
  store i32 %21, ptr %2, align 4
  br label %23

23:                                               ; preds = %.loopexit, %8, %3
  %.019 = phi i32 [ 8, %3 ], [ 0, %8 ], [ 0, %.loopexit ]
  ret i32 %.019
}